; ModuleID = '49/1372.c'
source_filename = "49/1372.c"
target datalayout = "e-m:e-p270:32:32-p271:32:32-p272:64:64-i64:64-f80:128-n8:16:32:64-S128"
target triple = "x86_64-pc-linux-gnu"

@.str = private unnamed_addr constant [3 x i8] c"%c\00", align 1
@.str.1 = private unnamed_addr constant [2 x i8] c"\0A\00", align 1

; Function Attrs: noinline nounwind uwtable
define dso_local i32 @huiwen(i8* %0, i32 %1, i32 %2) #0 {
  %4 = alloca i32, align 4
  %5 = alloca i8*, align 8
  %6 = alloca i32, align 4
  %7 = alloca i32, align 4
  %8 = alloca i32, align 4
  store i8* %0, i8** %5, align 8
  store i32 %1, i32* %6, align 4
  store i32 %2, i32* %7, align 4
  br label %9

9:                                                ; preds = %33, %3
  %10 = load i32, i32* %6, align 4
  %11 = load i32, i32* %7, align 4
  %12 = icmp slt i32 %10, %11
  br i1 %12, label %13, label %34

13:                                               ; preds = %9
  %14 = load i8*, i8** %5, align 8
  %15 = load i32, i32* %6, align 4
  %16 = sext i32 %15 to i64
  %17 = getelementptr inbounds i8, i8* %14, i64 %16
  %18 = load i8, i8* %17, align 1
  %19 = sext i8 %18 to i32
  %20 = load i8*, i8** %5, align 8
  %21 = load i32, i32* %7, align 4
  %22 = sext i32 %21 to i64
  %23 = getelementptr inbounds i8, i8* %20, i64 %22
  %24 = load i8, i8* %23, align 1
  %25 = sext i8 %24 to i32
  %26 = icmp ne i32 %19, %25
  br i1 %26, label %27, label %28

27:                                               ; preds = %13
  store i32 0, i32* %4, align 4
  br label %39

28:                                               ; preds = %13
  %29 = load i32, i32* %6, align 4
  %30 = add nsw i32 %29, 1
  store i32 %30, i32* %6, align 4
  %31 = load i32, i32* %7, align 4
  %32 = add nsw i32 %31, -1
  store i32 %32, i32* %7, align 4
  br label %33

33:                                               ; preds = %28
  br label %9

34:                                               ; preds = %9
  %35 = load i32, i32* %6, align 4
  %36 = load i32, i32* %7, align 4
  %37 = icmp sge i32 %35, %36
  br i1 %37, label %38, label %39

38:                                               ; preds = %34
  store i32 1, i32* %4, align 4
  br label %39

39:                                               ; preds = %27, %38, %34
  %40 = load i32, i32* %4, align 4
  ret i32 %40
}

; Function Attrs: noinline nounwind uwtable
define dso_local void @print(i8* %0, i32 %1, i32 %2) #0 {
  %4 = alloca i8*, align 8
  %5 = alloca i32, align 4
  %6 = alloca i32, align 4
  %7 = alloca i32, align 4
  store i8* %0, i8** %4, align 8
  store i32 %1, i32* %5, align 4
  store i32 %2, i32* %6, align 4
  %8 = load i32, i32* %5, align 4
  store i32 %8, i32* %7, align 4
  br label %9

9:                                                ; preds = %21, %3
  %10 = load i32, i32* %7, align 4
  %11 = load i32, i32* %6, align 4
  %12 = icmp sle i32 %10, %11
  br i1 %12, label %13, label %24

13:                                               ; preds = %9
  %14 = load i8*, i8** %4, align 8
  %15 = load i32, i32* %7, align 4
  %16 = sext i32 %15 to i64
  %17 = getelementptr inbounds i8, i8* %14, i64 %16
  %18 = load i8, i8* %17, align 1
  %19 = sext i8 %18 to i32
  %20 = call i32 (i8*, ...) @printf(i8* getelementptr inbounds ([3 x i8], [3 x i8]* @.str, i64 0, i64 0), i32 %19)
  br label %21

21:                                               ; preds = %13
  %22 = load i32, i32* %7, align 4
  %23 = add nsw i32 %22, 1
  store i32 %23, i32* %7, align 4
  br label %9

24:                                               ; preds = %9
  %25 = call i32 (i8*, ...) @printf(i8* getelementptr inbounds ([2 x i8], [2 x i8]* @.str.1, i64 0, i64 0))
  ret void
}

declare dso_local i32 @printf(i8*, ...) #1

; Function Attrs: noinline nounwind uwtable
define dso_local i32 @main() #0 {
  %1 = alloca i32, align 4
  %2 = alloca [500 x i8], align 16
  %3 = alloca i32, align 4
  %4 = alloca i32, align 4
  %5 = alloca i32, align 4
  %6 = alloca i32, align 4
  store i32 0, i32* %1, align 4
  %7 = getelementptr inbounds [500 x i8], [500 x i8]* %2, i64 0, i64 0
  %8 = call i32 (i8*, ...) bitcast (i32 (...)* @gets to i32 (i8*, ...)*)(i8* %7)
  %9 = getelementptr inbounds [500 x i8], [500 x i8]* %2, i64 0, i64 0
  %10 = call i64 @strlen(i8* %9) #3
  %11 = trunc i64 %10 to i32
  store i32 %11, i32* %6, align 4
  store i32 2, i32* %3, align 4
  br label %12

12:                                               ; preds = %44, %0
  %13 = load i32, i32* %3, align 4
  %14 = load i32, i32* %6, align 4
  %15 = icmp sle i32 %13, %14
  br i1 %15, label %16, label %47

16:                                               ; preds = %12
  store i32 0, i32* %4, align 4
  br label %17

17:                                               ; preds = %40, %16
  %18 = load i32, i32* %4, align 4
  %19 = load i32, i32* %6, align 4
  %20 = load i32, i32* %3, align 4
  %21 = sub nsw i32 %19, %20
  %22 = icmp sle i32 %18, %21
  br i1 %22, label %23, label %43

23:                                               ; preds = %17
  %24 = getelementptr inbounds [500 x i8], [500 x i8]* %2, i64 0, i64 0
  %25 = load i32, i32* %4, align 4
  %26 = load i32, i32* %4, align 4
  %27 = load i32, i32* %3, align 4
  %28 = add nsw i32 %26, %27
  %29 = sub nsw i32 %28, 1
  %30 = call i32 @huiwen(i8* %24, i32 %25, i32 %29)
  %31 = icmp eq i32 %30, 1
  br i1 %31, label %32, label %39

32:                                               ; preds = %23
  %33 = getelementptr inbounds [500 x i8], [500 x i8]* %2, i64 0, i64 0
  %34 = load i32, i32* %4, align 4
  %35 = load i32, i32* %4, align 4
  %36 = load i32, i32* %3, align 4
  %37 = add nsw i32 %35, %36
  %38 = sub nsw i32 %37, 1
  call void @print(i8* %33, i32 %34, i32 %38)
  br label %39

39:                                               ; preds = %32, %23
  br label %40

40:                                               ; preds = %39
  %41 = load i32, i32* %4, align 4
  %42 = add nsw i32 %41, 1
  store i32 %42, i32* %4, align 4
  br label %17

43:                                               ; preds = %17
  br label %44

44:                                               ; preds = %43
  %45 = load i32, i32* %3, align 4
  %46 = add nsw i32 %45, 1
  store i32 %46, i32* %3, align 4
  br label %12

47:                                               ; preds = %12
  %48 = load i32, i32* %1, align 4
  ret i32 %48
}

declare dso_local i32 @gets(...) #1

; Function Attrs: nounwind readonly
declare dso_local i64 @strlen(i8*) #2


!llvm.module.flags = !{!0}
!llvm.ident = !{!1}

!0 = !{i32 1, !"wchar_size", i32 4}
!1 = !{!"clang version 10.0.0-4ubuntu1 "}
